; Function Attrs: mustprogress nounwind uwtable
define hidden void @_ZN12LinkResolver20resolve_special_callER8CallInfo6HandleRK8LinkInfoP10JavaThread(ptr noundef nonnull align 8 dereferenceable(64) %0, ptr %1, ptr nocapture noundef nonnull readonly align 8 dereferenceable(51) %2, ptr noundef %3) local_unnamed_addr #0 align 2 {
  %5 = alloca %class.methodHandle, align 8
  %6 = tail call noundef ptr @_ZN12LinkResolver31linktime_resolve_special_methodERK8LinkInfoP10JavaThread(ptr noundef nonnull align 8 dereferenceable(51) %2, ptr noundef %3)
  %7 = getelementptr inbounds i8, ptr %3, i64 8
  %8 = load ptr, ptr %7, align 8
  %.not = icmp eq ptr %8, null
  br i1 %.not, label %9, label %34

9:                                                ; preds = %4
  store ptr %6, ptr %5, align 8
  %10 = getelementptr inbounds i8, ptr %5, i64 8
  store ptr %3, ptr %10, align 8
  %.not.i = icmp eq ptr %6, null
  br i1 %.not.i, label %_ZN12methodHandleC2EP6ThreadP6Method.exit, label %11

11:                                               ; preds = %9
  %12 = getelementptr inbounds i8, ptr %3, i64 816
  %13 = load ptr, ptr %12, align 8
  %14 = load i32, ptr %13, align 8
  %15 = getelementptr inbounds i8, ptr %13, i64 4
  %16 = load i32, ptr %15, align 4
  %17 = icmp eq i32 %14, %16
  br i1 %17, label %18, label %_ZN26GrowableArrayWithAllocatorIP8Metadata13GrowableArrayIS1_EE4pushERKS1_.exit.i

18:                                               ; preds = %11
  %19 = add nsw i32 %14, 1
  %20 = icmp sgt i32 %14, -1
  %21 = xor i32 %14, -2147483648
  %22 = and i32 %21, %19
  %23 = icmp eq i32 %22, 0
  %24 = and i1 %20, %23
  %25 = tail call range(i32 0, 33) i32 @llvm.ctlz.i32(i32 %19, i1 true)
  %26 = sub nuw nsw i32 32, %25
  %27 = shl nuw i32 1, %26
  %.0.i.i.i.i.i.i = select i1 %24, i32 %19, i32 %27
  tail call void @_ZN26GrowableArrayWithAllocatorIP8Metadata13GrowableArrayIS1_EE9expand_toEi(ptr noundef nonnull align 8 dereferenceable(16) %13, i32 noundef %.0.i.i.i.i.i.i)
  %.pre.i.i.i = load i32, ptr %13, align 8
  br label %_ZN26GrowableArrayWithAllocatorIP8Metadata13GrowableArrayIS1_EE4pushERKS1_.exit.i

_ZN26GrowableArrayWithAllocatorIP8Metadata13GrowableArrayIS1_EE4pushERKS1_.exit.i: ; preds = %18, %11
  %28 = phi i32 [ %.pre.i.i.i, %18 ], [ %14, %11 ]
  %29 = add nsw i32 %28, 1
  store i32 %29, ptr %13, align 8
  %30 = getelementptr inbounds i8, ptr %13, i64 8
  %31 = load ptr, ptr %30, align 8
  %32 = sext i32 %28 to i64
  %33 = getelementptr inbounds ptr, ptr %31, i64 %32
  store ptr %6, ptr %33, align 8
  br label %_ZN12methodHandleC2EP6ThreadP6Method.exit

_ZN12methodHandleC2EP6ThreadP6Method.exit:        ; preds = %9, %_ZN26GrowableArrayWithAllocatorIP8Metadata13GrowableArrayIS1_EE4pushERKS1_.exit.i
  call void @_ZN12LinkResolver30runtime_resolve_special_methodER8CallInfoRK8LinkInfoRK12methodHandle6HandleP10JavaThread(ptr noundef nonnull align 8 dereferenceable(64) %0, ptr noundef nonnull align 8 dereferenceable(51) %2, ptr noundef nonnull align 8 dereferenceable(16) %5, ptr %1, ptr noundef nonnull %3)
  call void @_ZN12methodHandleD1Ev(ptr noundef nonnull align 8 dereferenceable(16) %5) #10
  br label %34

34:                                               ; preds = %_ZN12methodHandleC2EP6ThreadP6Method.exit, %4
  ret void
}